Certificate:
    Data:
        Version: 1 (0x0)
        Serial Number: 2 (0x2)
        Signature Algorithm: ecdsa-with-SHA256
        Issuer: C=US, CN=ca
        Validity
            Not Before: Jun 27 11:59:44 2023 GMT
            Not After : Jun 26 11:59:44 2024 GMT
        Subject: C=US, CN=0.0.0.0
        Subject Public Key Info:
            Public Key Algorithm: id-ecPublicKey
                Public-Key: (256 bit)
                pub:
                    04:af:1d:90:b6:5a:8f:e6:22:d5:6c:6a:05:6a:77:
                    bd:cb:59:92:40:6b:f3:7d:24:fd:99:ff:dd:e0:c8:
                    1c:42:20:d6:fb:fa:f3:0b:33:ef:3a:ee:b9:09:bd:
                    43:57:9c:25:07:4e:1c:d8:f4:cf:6e:1f:bb:35:2b:
                    ab:62:00:82:c7
                ASN1 OID: prime256v1
                NIST CURVE: P-256
    Signature Algorithm: ecdsa-with-SHA256
    Signature Value:
        30:46:02:21:00:9a:96:c7:1d:b1:e1:b1:83:87:ec:19:62:ea:
        7e:f1:c2:da:3c:8a:9c:ae:c6:e3:4d:c7:0d:99:f2:e8:62:10:
        63:02:21:00:94:7d:34:f8:73:eb:97:c1:b1:9a:3f:d8:8f:cd:
        4c:a1:3a:5b:17:dd:5e:bc:e8:0b:02:0f:cf:5d:82:99:90:13
-----BEGIN CERTIFICATE-----
MIIBITCBxwIBAjAKBggqhkjOPQQDAjAaMQswCQYDVQQGEwJVUzELMAkGA1UEAwwC
Y2EwHhcNMjMwNjI3MTE1OTQ0WhcNMjQwNjI2MTE1OTQ0WjAfMQswCQYDVQQGEwJV
UzEQMA4GA1UEAwwHMC4wLjAuMDBZMBMGByqGSM49AgEGCCqGSM49AwEHA0IABK8d
kLZaj+Yi1WxqBWp3vctZkkBr830k/Zn/3eDIHEIg1vv68wsz7zruuQm9Q1ecJQdO
HNj0z24fuzUrq2IAgscwCgYIKoZIzj0EAwIDSQAwRgIhAJqWxx2x4bGDh+wZYup+
8cLaPIqcrsbjTccNmfLoYhBjAiEAlH00+HPrl8Gxmj/Yj81MoTpbF91evOgLAg/P
XYKZkBM=
-----END CERTIFICATE-----
