Certificate:
    Data:
        Version: 1 (0x0)
        Serial Number: 2 (0x2)
        Signature Algorithm: ecdsa-with-SHA256
        Issuer: C=US, CN=ca
        Validity
            Not Before: Aug 12 06:51:27 2023 GMT
            Not After : Aug 11 06:51:27 2024 GMT
        Subject: C=US, CN=0.0.0.0
        Subject Public Key Info:
            Public Key Algorithm: id-ecPublicKey
                Public-Key: (256 bit)
                pub:
                    04:7e:45:55:e9:ed:96:78:f9:27:4c:79:dd:3c:14:
                    f2:76:ea:fe:51:d5:e8:e8:b9:7c:8d:41:e1:2b:7f:
                    18:0d:37:00:5e:3b:57:be:a3:17:05:a3:57:ed:0a:
                    fa:45:e1:fb:f3:fc:6a:cb:cb:c6:22:75:a2:db:25:
                    1d:9b:a1:a6:d8
                ASN1 OID: prime256v1
                NIST CURVE: P-256
    Signature Algorithm: ecdsa-with-SHA256
    Signature Value:
        30:45:02:21:00:ed:22:a4:e4:bd:5e:d7:33:99:58:eb:ed:4f:
        06:8d:2e:9c:0b:db:af:89:5f:d1:75:4d:3c:66:a2:e5:0c:26:
        67:02:20:11:c2:29:2d:22:d7:39:af:cd:0f:90:46:aa:d0:35:
        8e:b7:76:93:cc:2d:c3:72:a6:a0:bb:95:c4:71:75:2d:6f
-----BEGIN CERTIFICATE-----
MIIBIDCBxwIBAjAKBggqhkjOPQQDAjAaMQswCQYDVQQGEwJVUzELMAkGA1UEAwwC
Y2EwHhcNMjMwODEyMDY1MTI3WhcNMjQwODExMDY1MTI3WjAfMQswCQYDVQQGEwJV
UzEQMA4GA1UEAwwHMC4wLjAuMDBZMBMGByqGSM49AgEGCCqGSM49AwEHA0IABH5F
Ventlnj5J0x53TwU8nbq/lHV6Oi5fI1B4St/GA03AF47V76jFwWjV+0K+kXh+/P8
asvLxiJ1otslHZuhptgwCgYIKoZIzj0EAwIDSAAwRQIhAO0ipOS9XtczmVjr7U8G
jS6cC9uviV/RdU08ZqLlDCZnAiARwiktItc5r80PkEaq0DWOt3aTzC3Dcqagu5XE
cXUtbw==
-----END CERTIFICATE-----
