Certificate:
    Data:
        Version: 1 (0x0)
        Serial Number: 1 (0x1)
        Signature Algorithm: ecdsa-with-SHA256
        Issuer: C=US, CN=ca
        Validity
            Not Before: Jun 28 01:04:56 2023 GMT
            Not After : Jun 27 01:04:56 2024 GMT
        Subject: C=US, CN=fd99
        Subject Public Key Info:
            Public Key Algorithm: id-ecPublicKey
                Public-Key: (256 bit)
                pub:
                    04:78:94:84:20:8e:bb:5d:a9:ce:13:17:06:5a:51:
                    17:15:e1:46:f6:2b:41:78:f4:6e:ad:83:d3:0a:ee:
                    b6:71:0d:ac:58:a6:8d:65:7b:6d:23:2c:9a:98:53:
                    90:dd:c3:67:6e:08:d8:4e:32:34:a5:61:9a:53:03:
                    c3:f5:81:07:67
                ASN1 OID: prime256v1
                NIST CURVE: P-256
    Signature Algorithm: ecdsa-with-SHA256
    Signature Value:
        30:46:02:21:00:88:0e:8a:02:26:29:bb:8e:08:a3:87:8e:2a:
        59:e4:c2:b9:01:72:1f:54:1b:c9:cb:89:69:f0:84:ac:e9:b3:
        32:02:21:00:fc:5c:f8:ca:bd:30:07:38:f9:aa:d8:fd:d1:1f:
        18:90:ca:73:63:b2:a8:7a:b3:da:50:23:54:c6:a9:cb:62:97
-----BEGIN CERTIFICATE-----
MIIBHjCBxAIBATAKBggqhkjOPQQDAjAaMQswCQYDVQQGEwJVUzELMAkGA1UEAwwC
Y2EwHhcNMjMwNjI4MDEwNDU2WhcNMjQwNjI3MDEwNDU2WjAcMQswCQYDVQQGEwJV
UzENMAsGA1UEAwwEZmQ5OTBZMBMGByqGSM49AgEGCCqGSM49AwEHA0IABHiUhCCO
u12pzhMXBlpRFxXhRvYrQXj0bq2D0wrutnENrFimjWV7bSMsmphTkN3DZ24I2E4y
NKVhmlMDw/WBB2cwCgYIKoZIzj0EAwIDSQAwRgIhAIgOigImKbuOCKOHjipZ5MK5
AXIfVBvJy4lp8ISs6bMyAiEA/Fz4yr0wBzj5qtj90R8YkMpzY7KoerPaUCNUxqnL
Ypc=
-----END CERTIFICATE-----
