Certificate:
    Data:
        Version: 1 (0x0)
        Serial Number: 2 (0x2)
        Signature Algorithm: ecdsa-with-SHA256
        Issuer: C=US, CN=ca
        Validity
            Not Before: Jun 28 21:25:00 2023 GMT
            Not After : Jun 27 21:25:00 2024 GMT
        Subject: C=US, CN=0.0.0.0
        Subject Public Key Info:
            Public Key Algorithm: id-ecPublicKey
                Public-Key: (256 bit)
                pub:
                    04:ab:f8:e8:61:22:51:15:29:9d:81:d4:70:a4:bf:
                    c2:af:3c:45:77:f2:6d:c2:55:77:1e:d7:3d:2c:68:
                    e1:d6:a9:83:9f:9b:fd:0f:7c:1d:0a:6b:8a:d0:7a:
                    40:86:51:17:3e:d6:5e:8d:f5:fe:52:e4:55:ae:60:
                    38:9f:31:d2:68
                ASN1 OID: prime256v1
                NIST CURVE: P-256
    Signature Algorithm: ecdsa-with-SHA256
    Signature Value:
        30:44:02:20:3b:fa:2b:cd:3c:2b:55:61:ba:3d:13:0e:28:8c:
        5d:5c:43:92:b2:ca:83:44:02:b6:b1:89:e5:ca:27:5f:f6:31:
        02:20:19:c0:d7:fe:68:f5:5e:a5:8f:4d:11:76:d9:7b:2d:55:
        4a:0d:69:13:10:1e:e8:5a:e5:ad:84:99:1b:82:7e:7b
-----BEGIN CERTIFICATE-----
MIIBHzCBxwIBAjAKBggqhkjOPQQDAjAaMQswCQYDVQQGEwJVUzELMAkGA1UEAwwC
Y2EwHhcNMjMwNjI4MjEyNTAwWhcNMjQwNjI3MjEyNTAwWjAfMQswCQYDVQQGEwJV
UzEQMA4GA1UEAwwHMC4wLjAuMDBZMBMGByqGSM49AgEGCCqGSM49AwEHA0IABKv4
6GEiURUpnYHUcKS/wq88RXfybcJVdx7XPSxo4dapg5+b/Q98HQpritB6QIZRFz7W
Xo31/lLkVa5gOJ8x0mgwCgYIKoZIzj0EAwIDRwAwRAIgO/orzTwrVWG6PRMOKIxd
XEOSssqDRAK2sYnlyidf9jECIBnA1/5o9V6lj00Rdtl7LVVKDWkTEB7oWuWthJkb
gn57
-----END CERTIFICATE-----
