Certificate:
    Data:
        Version: 1 (0x0)
        Serial Number: 2 (0x2)
        Signature Algorithm: ecdsa-with-SHA256
        Issuer: C=US, CN=ca
        Validity
            Not Before: Jun 28 01:04:56 2023 GMT
            Not After : Jun 27 01:04:56 2024 GMT
        Subject: C=US, CN=0.0.0.0
        Subject Public Key Info:
            Public Key Algorithm: id-ecPublicKey
                Public-Key: (256 bit)
                pub:
                    04:e2:fc:d7:0e:f7:76:8c:48:28:87:05:a6:e1:0a:
                    cc:39:a5:db:52:d8:de:29:99:21:b9:0e:83:ab:72:
                    58:29:ad:eb:a4:80:69:93:75:06:4a:1f:c3:dd:dc:
                    df:5d:5f:8d:3b:ac:58:06:ab:92:db:14:aa:51:ee:
                    1b:e8:8e:d5:5a
                ASN1 OID: prime256v1
                NIST CURVE: P-256
    Signature Algorithm: ecdsa-with-SHA256
    Signature Value:
        30:45:02:20:02:76:12:60:df:00:87:2f:d0:f0:3b:7b:22:af:
        6d:7d:b7:23:c8:98:68:7e:7f:0b:b1:65:98:8b:86:52:b5:32:
        02:21:00:de:f9:ce:73:55:44:ae:d3:88:0f:62:e3:1d:fa:86:
        08:0c:dc:54:f6:96:5f:22:d0:a9:cb:51:56:21:11:40:3c
-----BEGIN CERTIFICATE-----
MIIBIDCBxwIBAjAKBggqhkjOPQQDAjAaMQswCQYDVQQGEwJVUzELMAkGA1UEAwwC
Y2EwHhcNMjMwNjI4MDEwNDU2WhcNMjQwNjI3MDEwNDU2WjAfMQswCQYDVQQGEwJV
UzEQMA4GA1UEAwwHMC4wLjAuMDBZMBMGByqGSM49AgEGCCqGSM49AwEHA0IABOL8
1w73doxIKIcFpuEKzDml21LY3imZIbkOg6tyWCmt66SAaZN1Bkofw93c311fjTus
WAarktsUqlHuG+iO1VowCgYIKoZIzj0EAwIDSAAwRQIgAnYSYN8Ahy/Q8Dt7Iq9t
fbcjyJhofn8LsWWYi4ZStTICIQDe+c5zVUSu04gPYuMd+oYIDNxU9pZfItCpy1FW
IRFAPA==
-----END CERTIFICATE-----
