Certificate:
    Data:
        Version: 1 (0x0)
        Serial Number: 3 (0x3)
        Signature Algorithm: ecdsa-with-SHA256
        Issuer: C=US, CN=ca
        Validity
            Not Before: Aug 12 06:51:27 2023 GMT
            Not After : Aug 11 06:51:27 2024 GMT
        Subject: C=US, CN=admin
        Subject Public Key Info:
            Public Key Algorithm: id-ecPublicKey
                Public-Key: (256 bit)
                pub:
                    04:af:7e:53:e2:99:ed:53:78:e6:96:dc:5f:5f:c6:
                    98:72:5c:da:92:b2:56:b6:a1:0b:07:01:8c:de:0d:
                    8c:2f:7f:79:2a:7f:17:53:4f:f7:e0:49:3c:1c:5e:
                    5f:b0:82:03:5f:1e:28:cb:9b:22:03:9d:ee:a4:c1:
                    b1:c5:f9:a5:84
                ASN1 OID: prime256v1
                NIST CURVE: P-256
    Signature Algorithm: ecdsa-with-SHA256
    Signature Value:
        30:46:02:21:00:b1:4e:bf:10:c2:1f:02:21:3b:4c:88:5b:44:
        e2:88:33:da:5e:22:ec:b6:84:28:e4:82:e2:b4:a6:6b:42:d3:
        61:02:21:00:f9:e0:83:35:b0:8c:1c:cf:80:21:9d:1b:f4:a4:
        a9:0c:57:30:ff:cc:9b:19:32:b4:4f:5f:b7:44:7c:0a:84:20
-----BEGIN CERTIFICATE-----
MIIBHzCBxQIBAzAKBggqhkjOPQQDAjAaMQswCQYDVQQGEwJVUzELMAkGA1UEAwwC
Y2EwHhcNMjMwODEyMDY1MTI3WhcNMjQwODExMDY1MTI3WjAdMQswCQYDVQQGEwJV
UzEOMAwGA1UEAwwFYWRtaW4wWTATBgcqhkjOPQIBBggqhkjOPQMBBwNCAASvflPi
me1TeOaW3F9fxphyXNqSsla2oQsHAYzeDYwvf3kqfxdTT/fgSTwcXl+wggNfHijL
myIDne6kwbHF+aWEMAoGCCqGSM49BAMCA0kAMEYCIQCxTr8Qwh8CITtMiFtE4ogz
2l4i7LaEKOSC4rSma0LTYQIhAPnggzWwjBzPgCGdG/SkqQxXMP/MmxkytE9ft0R8
CoQg
-----END CERTIFICATE-----
