Certificate:
    Data:
        Version: 1 (0x0)
        Serial Number: 3 (0x3)
        Signature Algorithm: ecdsa-with-SHA256
        Issuer: C=US, CN=ca
        Validity
            Not Before: Jun 27 11:59:44 2023 GMT
            Not After : Jun 26 11:59:44 2024 GMT
        Subject: C=US, CN=admin
        Subject Public Key Info:
            Public Key Algorithm: id-ecPublicKey
                Public-Key: (256 bit)
                pub:
                    04:12:68:fd:8c:5c:a0:d1:a4:d2:30:32:d1:16:71:
                    c2:b3:ab:e0:f7:fa:de:51:a7:90:38:84:f0:6f:75:
                    e8:8e:3e:70:98:ab:e1:10:99:d3:8d:97:fe:df:67:
                    73:d6:f0:a4:ea:49:b2:04:6e:d3:52:c3:b7:cf:e0:
                    11:08:53:44:bc
                ASN1 OID: prime256v1
                NIST CURVE: P-256
    Signature Algorithm: ecdsa-with-SHA256
    Signature Value:
        30:45:02:20:37:87:6c:49:e7:bf:f6:4f:85:e5:8f:bb:bc:68:
        42:f3:6b:4d:60:ab:54:af:01:23:8c:24:ad:f0:14:ec:9d:a5:
        02:21:00:aa:14:2b:ef:71:c9:b8:e4:5e:9b:49:79:64:a6:5d:
        aa:9c:4b:30:b6:58:12:f7:33:50:76:1d:a9:81:3e:b0:3e
-----BEGIN CERTIFICATE-----
MIIBHjCBxQIBAzAKBggqhkjOPQQDAjAaMQswCQYDVQQGEwJVUzELMAkGA1UEAwwC
Y2EwHhcNMjMwNjI3MTE1OTQ0WhcNMjQwNjI2MTE1OTQ0WjAdMQswCQYDVQQGEwJV
UzEOMAwGA1UEAwwFYWRtaW4wWTATBgcqhkjOPQIBBggqhkjOPQMBBwNCAAQSaP2M
XKDRpNIwMtEWccKzq+D3+t5Rp5A4hPBvdeiOPnCYq+EQmdONl/7fZ3PW8KTqSbIE
btNSw7fP4BEIU0S8MAoGCCqGSM49BAMCA0gAMEUCIDeHbEnnv/ZPheWPu7xoQvNr
TWCrVK8BI4wkrfAU7J2lAiEAqhQr73HJuORem0l5ZKZdqpxLMLZYEvczUHYdqYE+
sD4=
-----END CERTIFICATE-----
