Certificate:
    Data:
        Version: 1 (0x0)
        Serial Number: 3 (0x3)
        Signature Algorithm: ecdsa-with-SHA256
        Issuer: C=US, CN=ca
        Validity
            Not Before: Jun 28 01:04:56 2023 GMT
            Not After : Jun 27 01:04:56 2024 GMT
        Subject: C=US, CN=admin
        Subject Public Key Info:
            Public Key Algorithm: id-ecPublicKey
                Public-Key: (256 bit)
                pub:
                    04:25:51:c1:79:77:9f:2f:63:97:2f:35:c1:07:a5:
                    f3:35:31:dc:d9:6e:10:75:6f:94:b8:ac:1d:f4:2d:
                    2b:c1:00:98:bb:f4:d9:c6:08:b9:25:4e:f7:b5:2c:
                    fc:4c:da:b4:f1:d8:77:7a:b2:f1:8f:cf:46:a6:73:
                    86:f7:ee:b2:d7
                ASN1 OID: prime256v1
                NIST CURVE: P-256
    Signature Algorithm: ecdsa-with-SHA256
    Signature Value:
        30:44:02:20:6c:79:d3:27:cb:97:3d:e0:a2:3e:cd:c9:34:19:
        bf:24:06:2b:81:f2:fe:98:ca:c9:61:58:9c:db:80:99:9f:be:
        02:20:3b:c4:5a:9a:7d:08:b5:51:d6:2c:ce:d3:4b:bb:ca:3f:
        19:b5:96:81:37:45:2c:ad:79:5a:0e:97:1a:d0:2c:34
-----BEGIN CERTIFICATE-----
MIIBHTCBxQIBAzAKBggqhkjOPQQDAjAaMQswCQYDVQQGEwJVUzELMAkGA1UEAwwC
Y2EwHhcNMjMwNjI4MDEwNDU2WhcNMjQwNjI3MDEwNDU2WjAdMQswCQYDVQQGEwJV
UzEOMAwGA1UEAwwFYWRtaW4wWTATBgcqhkjOPQIBBggqhkjOPQMBBwNCAAQlUcF5
d58vY5cvNcEHpfM1MdzZbhB1b5S4rB30LSvBAJi79NnGCLklTve1LPxM2rTx2Hd6
svGPz0amc4b37rLXMAoGCCqGSM49BAMCA0cAMEQCIGx50yfLlz3goj7NyTQZvyQG
K4Hy/pjKyWFYnNuAmZ++AiA7xFqafQi1UdYsztNLu8o/GbWWgTdFLK15Wg6XGtAs
NA==
-----END CERTIFICATE-----
