Certificate:
    Data:
        Version: 1 (0x0)
        Serial Number: 4 (0x4)
        Signature Algorithm: ecdsa-with-SHA256
        Issuer: C=US, CN=ca
        Validity
            Not Before: Aug 12 06:51:27 2023 GMT
            Not After : Aug 11 06:51:27 2024 GMT
        Subject: C=US, CN=dev1
        Subject Public Key Info:
            Public Key Algorithm: id-ecPublicKey
                Public-Key: (256 bit)
                pub:
                    04:18:62:a7:08:f3:6c:5d:db:2c:2d:2f:0c:62:93:
                    5f:49:4e:a3:32:33:97:cf:c2:df:8a:65:4c:28:b8:
                    a1:c9:cb:3a:7d:be:7d:dc:5a:fa:26:ec:f2:3f:b0:
                    9b:a1:b2:b3:08:7d:b3:4b:c3:92:dd:e1:cc:4f:c4:
                    65:b9:e2:4d:c4
                ASN1 OID: prime256v1
                NIST CURVE: P-256
    Signature Algorithm: ecdsa-with-SHA256
    Signature Value:
        30:45:02:21:00:d0:25:52:a7:a6:0a:30:36:ac:7e:b0:15:20:
        fa:e9:67:04:89:69:5c:d1:0c:3f:45:3d:c8:4e:a1:b4:56:62:
        3a:02:20:0f:0c:69:a2:b0:15:c6:ff:51:b2:b1:8e:a6:ad:57:
        7e:ce:23:7f:01:52:f0:48:e6:64:a6:4f:ad:09:a1:f0:1b
-----BEGIN CERTIFICATE-----
MIIBHTCBxAIBBDAKBggqhkjOPQQDAjAaMQswCQYDVQQGEwJVUzELMAkGA1UEAwwC
Y2EwHhcNMjMwODEyMDY1MTI3WhcNMjQwODExMDY1MTI3WjAcMQswCQYDVQQGEwJV
UzENMAsGA1UEAwwEZGV2MTBZMBMGByqGSM49AgEGCCqGSM49AwEHA0IABBhipwjz
bF3bLC0vDGKTX0lOozIzl8/C34plTCi4ocnLOn2+fdxa+ibs8j+wm6Gyswh9s0vD
kt3hzE/EZbniTcQwCgYIKoZIzj0EAwIDSAAwRQIhANAlUqemCjA2rH6wFSD66WcE
iWlc0Qw/RT3ITqG0VmI6AiAPDGmisBXG/1GysY6mrVd+ziN/AVLwSOZkpk+tCaHw
Gw==
-----END CERTIFICATE-----
