Certificate:
    Data:
        Version: 1 (0x0)
        Serial Number: 5 (0x5)
        Signature Algorithm: ecdsa-with-SHA256
        Issuer: C=US, CN=ca
        Validity
            Not Before: Jun 27 11:59:44 2023 GMT
            Not After : Jun 26 11:59:44 2024 GMT
        Subject: C=US, CN=dev2
        Subject Public Key Info:
            Public Key Algorithm: id-ecPublicKey
                Public-Key: (256 bit)
                pub:
                    04:dd:56:74:f4:3e:2c:86:cd:41:96:45:cf:04:cc:
                    6c:78:a5:f3:71:1d:d4:d9:06:09:a9:e0:78:24:41:
                    1c:b4:e2:cf:45:5e:9f:b2:30:26:3f:97:f6:8d:bd:
                    5a:74:cc:40:9f:1f:76:e8:21:ff:b3:9b:4f:04:e2:
                    67:68:82:64:e1
                ASN1 OID: prime256v1
                NIST CURVE: P-256
    Signature Algorithm: ecdsa-with-SHA256
    Signature Value:
        30:45:02:20:49:96:9b:14:fe:d0:65:b4:dd:9d:f5:6f:4e:bc:
        1b:e3:36:cb:1b:c0:d1:21:e5:93:1d:5c:35:fe:4f:eb:25:99:
        02:21:00:d2:b0:10:82:a6:6d:9f:94:55:9a:9e:85:13:bd:db:
        5b:2a:08:a8:91:62:b7:5d:f0:a5:ed:46:f6:80:b7:de:ce
-----BEGIN CERTIFICATE-----
MIIBHTCBxAIBBTAKBggqhkjOPQQDAjAaMQswCQYDVQQGEwJVUzELMAkGA1UEAwwC
Y2EwHhcNMjMwNjI3MTE1OTQ0WhcNMjQwNjI2MTE1OTQ0WjAcMQswCQYDVQQGEwJV
UzENMAsGA1UEAwwEZGV2MjBZMBMGByqGSM49AgEGCCqGSM49AwEHA0IABN1WdPQ+
LIbNQZZFzwTMbHil83Ed1NkGCangeCRBHLTiz0Ven7IwJj+X9o29WnTMQJ8fdugh
/7ObTwTiZ2iCZOEwCgYIKoZIzj0EAwIDSAAwRQIgSZabFP7QZbTdnfVvTrwb4zbL
G8DRIeWTHVw1/k/rJZkCIQDSsBCCpm2flFWanoUTvdtbKgiokWK3XfCl7Ub2gLfe
zg==
-----END CERTIFICATE-----
