Certificate:
    Data:
        Version: 1 (0x0)
        Serial Number: 5 (0x5)
        Signature Algorithm: ecdsa-with-SHA256
        Issuer: C=US, CN=ca
        Validity
            Not Before: Jun 28 21:25:00 2023 GMT
            Not After : Jun 27 21:25:00 2024 GMT
        Subject: C=US, CN=dev2
        Subject Public Key Info:
            Public Key Algorithm: id-ecPublicKey
                Public-Key: (256 bit)
                pub:
                    04:11:de:35:8b:42:9f:75:a0:1d:7d:d0:3e:67:61:
                    6c:16:2c:ec:78:49:76:60:63:d4:ca:c4:e3:1a:34:
                    c0:8a:e2:58:5d:f0:93:88:21:38:38:16:d7:1a:d1:
                    95:ba:70:81:1e:15:34:45:cd:0a:d8:d5:6a:30:5c:
                    e8:f1:a2:20:93
                ASN1 OID: prime256v1
                NIST CURVE: P-256
    Signature Algorithm: ecdsa-with-SHA256
    Signature Value:
        30:44:02:20:77:f0:ae:bd:e9:9c:d9:93:f7:f3:db:81:89:ef:
        30:c0:6e:7f:55:ef:cb:13:f6:13:8b:2d:26:14:96:45:dc:d8:
        02:20:59:11:79:fb:4a:c0:78:24:7f:ce:c1:a4:db:f1:0c:0f:
        bd:e4:45:6d:b2:cf:1e:7d:1d:35:c3:af:b1:c9:d9:de
-----BEGIN CERTIFICATE-----
MIIBHDCBxAIBBTAKBggqhkjOPQQDAjAaMQswCQYDVQQGEwJVUzELMAkGA1UEAwwC
Y2EwHhcNMjMwNjI4MjEyNTAwWhcNMjQwNjI3MjEyNTAwWjAcMQswCQYDVQQGEwJV
UzENMAsGA1UEAwwEZGV2MjBZMBMGByqGSM49AgEGCCqGSM49AwEHA0IABBHeNYtC
n3WgHX3QPmdhbBYs7HhJdmBj1MrE4xo0wIriWF3wk4ghODgW1xrRlbpwgR4VNEXN
CtjVajBc6PGiIJMwCgYIKoZIzj0EAwIDRwAwRAIgd/Cuvemc2ZP389uBie8wwG5/
Ve/LE/YTiy0mFJZF3NgCIFkReftKwHgkf87BpNvxDA+95EVtss8efR01w6+xydne
-----END CERTIFICATE-----
