Certificate:
    Data:
        Version: 1 (0x0)
        Serial Number: 1 (0x1)
        Signature Algorithm: ecdsa-with-SHA256
        Issuer: C=US, CN=ca
        Validity
            Not Before: Jun 27 11:59:44 2023 GMT
            Not After : Jun 26 11:59:44 2024 GMT
        Subject: C=US, CN=10.0.2.3
        Subject Public Key Info:
            Public Key Algorithm: id-ecPublicKey
                Public-Key: (256 bit)
                pub:
                    04:0d:9e:b5:a2:1c:2f:fa:fc:a3:ae:6f:2a:94:c4:
                    48:0b:c8:d5:46:31:9f:a4:30:ed:e5:ce:31:c8:03:
                    cd:0d:9c:3e:74:30:79:6f:ba:53:0c:35:67:f0:ab:
                    40:51:23:e6:76:62:1e:a6:53:0f:34:97:1a:2c:d8:
                    ca:52:a5:c7:79
                ASN1 OID: prime256v1
                NIST CURVE: P-256
    Signature Algorithm: ecdsa-with-SHA256
    Signature Value:
        30:46:02:21:00:ae:86:5a:14:5b:e7:1f:66:83:7f:ac:d2:9e:
        3c:71:5f:d0:92:7c:15:2f:08:91:a2:14:9c:ef:19:c5:2f:a7:
        46:02:21:00:e6:e7:17:3d:20:10:cc:9d:8b:cf:94:d8:26:40:
        69:84:3e:c6:86:0e:44:17:fd:53:30:31:37:61:49:ac:14:e7
-----BEGIN CERTIFICATE-----
MIIBIjCByAIBATAKBggqhkjOPQQDAjAaMQswCQYDVQQGEwJVUzELMAkGA1UEAwwC
Y2EwHhcNMjMwNjI3MTE1OTQ0WhcNMjQwNjI2MTE1OTQ0WjAgMQswCQYDVQQGEwJV
UzERMA8GA1UEAwwIMTAuMC4yLjMwWTATBgcqhkjOPQIBBggqhkjOPQMBBwNCAAQN
nrWiHC/6/KOubyqUxEgLyNVGMZ+kMO3lzjHIA80NnD50MHlvulMMNWfwq0BRI+Z2
Yh6mUw80lxos2MpSpcd5MAoGCCqGSM49BAMCA0kAMEYCIQCuhloUW+cfZoN/rNKe
PHFf0JJ8FS8IkaIUnO8ZxS+nRgIhAObnFz0gEMydi8+U2CZAaYQ+xoYORBf9UzAx
N2FJrBTn
-----END CERTIFICATE-----
