Certificate:
    Data:
        Version: 1 (0x0)
        Serial Number: 3 (0x3)
        Signature Algorithm: ecdsa-with-SHA256
        Issuer: C=US, CN=ca
        Validity
            Not Before: Jun 28 21:25:00 2023 GMT
            Not After : Jun 27 21:25:00 2024 GMT
        Subject: C=US, CN=admin
        Subject Public Key Info:
            Public Key Algorithm: id-ecPublicKey
                Public-Key: (256 bit)
                pub:
                    04:70:dc:b0:f6:d2:f6:45:4b:bf:6d:24:13:61:01:
                    81:c4:8d:52:64:87:f4:8b:ca:fa:af:0c:0c:05:14:
                    5c:63:a1:6a:d2:e6:5d:a2:73:3e:d8:c1:8a:ba:69:
                    a9:37:08:36:f3:68:64:3d:60:46:1e:27:9e:f3:ac:
                    2e:46:17:0d:40
                ASN1 OID: prime256v1
                NIST CURVE: P-256
    Signature Algorithm: ecdsa-with-SHA256
    Signature Value:
        30:45:02:21:00:a5:64:e0:87:00:ea:e1:27:0b:25:3d:d7:db:
        38:28:94:6d:ea:59:51:1a:26:59:62:4f:66:a7:94:58:76:21:
        41:02:20:38:9d:af:de:46:51:76:a2:d0:aa:d5:d8:4d:b9:12:
        d0:34:88:ed:9e:06:9d:29:ba:1b:d3:07:ad:96:b1:c4:87
-----BEGIN CERTIFICATE-----
MIIBHjCBxQIBAzAKBggqhkjOPQQDAjAaMQswCQYDVQQGEwJVUzELMAkGA1UEAwwC
Y2EwHhcNMjMwNjI4MjEyNTAwWhcNMjQwNjI3MjEyNTAwWjAdMQswCQYDVQQGEwJV
UzEOMAwGA1UEAwwFYWRtaW4wWTATBgcqhkjOPQIBBggqhkjOPQMBBwNCAARw3LD2
0vZFS79tJBNhAYHEjVJkh/SLyvqvDAwFFFxjoWrS5l2icz7YwYq6aak3CDbzaGQ9
YEYeJ57zrC5GFw1AMAoGCCqGSM49BAMCA0gAMEUCIQClZOCHAOrhJwslPdfbOCiU
bepZURomWWJPZqeUWHYhQQIgOJ2v3kZRdqLQqtXYTbkS0DSI7Z4GnSm6G9MHrZax
xIc=
-----END CERTIFICATE-----
