Certificate:
    Data:
        Version: 1 (0x0)
        Serial Number: 4 (0x4)
        Signature Algorithm: ecdsa-with-SHA256
        Issuer: C=US, CN=ca
        Validity
            Not Before: Jun 28 21:25:00 2023 GMT
            Not After : Jun 27 21:25:00 2024 GMT
        Subject: C=US, CN=dev1
        Subject Public Key Info:
            Public Key Algorithm: id-ecPublicKey
                Public-Key: (256 bit)
                pub:
                    04:1e:59:a4:4c:4f:64:de:db:e8:8e:df:6a:ce:fd:
                    8a:84:8c:1d:31:ad:9b:af:78:31:74:4f:68:54:a1:
                    84:6f:7a:e4:dc:f5:82:40:74:91:2b:86:2e:ec:30:
                    dd:20:a8:1a:93:bb:33:31:31:75:70:68:60:cf:39:
                    dc:17:94:33:dc
                ASN1 OID: prime256v1
                NIST CURVE: P-256
    Signature Algorithm: ecdsa-with-SHA256
    Signature Value:
        30:45:02:21:00:80:60:d3:c0:3a:75:6d:cf:e3:23:d0:ca:cb:
        e3:e3:d0:18:b1:1e:75:08:2f:89:98:ec:e8:9e:2d:36:9e:60:
        f7:02:20:6a:11:31:2a:b9:3d:3d:96:d2:ff:09:c5:e3:cc:f7:
        d7:12:0b:54:7e:59:cf:d9:58:78:02:4b:92:c7:03:8a:37
-----BEGIN CERTIFICATE-----
MIIBHTCBxAIBBDAKBggqhkjOPQQDAjAaMQswCQYDVQQGEwJVUzELMAkGA1UEAwwC
Y2EwHhcNMjMwNjI4MjEyNTAwWhcNMjQwNjI3MjEyNTAwWjAcMQswCQYDVQQGEwJV
UzENMAsGA1UEAwwEZGV2MTBZMBMGByqGSM49AgEGCCqGSM49AwEHA0IABB5ZpExP
ZN7b6I7fas79ioSMHTGtm694MXRPaFShhG965Nz1gkB0kSuGLuww3SCoGpO7MzEx
dXBoYM853BeUM9wwCgYIKoZIzj0EAwIDSAAwRQIhAIBg08A6dW3P4yPQysvj49AY
sR51CC+JmOzoni02nmD3AiBqETEquT09ltL/CcXjzPfXEgtUflnP2Vh4AkuSxwOK
Nw==
-----END CERTIFICATE-----
