Certificate:
    Data:
        Version: 1 (0x0)
        Serial Number: 4 (0x4)
        Signature Algorithm: ecdsa-with-SHA256
        Issuer: C=US, CN=ca
        Validity
            Not Before: Jun 27 11:59:44 2023 GMT
            Not After : Jun 26 11:59:44 2024 GMT
        Subject: C=US, CN=dev1
        Subject Public Key Info:
            Public Key Algorithm: id-ecPublicKey
                Public-Key: (256 bit)
                pub:
                    04:d9:33:b6:78:35:bf:1d:28:41:1c:e2:b7:07:ea:
                    3c:9d:58:8e:60:94:44:8f:e4:92:ee:96:6e:b4:e1:
                    2e:5c:9e:35:56:4c:57:44:78:d6:88:f5:3e:a9:cf:
                    27:d2:75:dc:a0:9b:a4:e6:db:92:21:ae:c9:c5:fd:
                    d1:30:23:3f:95
                ASN1 OID: prime256v1
                NIST CURVE: P-256
    Signature Algorithm: ecdsa-with-SHA256
    Signature Value:
        30:45:02:20:53:50:81:87:ab:7b:ce:87:c5:19:22:d8:a8:79:
        0e:33:85:02:ba:87:a5:5c:cc:82:f7:76:d7:79:c5:c7:95:f6:
        02:21:00:c9:07:f3:54:3f:14:13:1e:0f:9d:da:1b:13:12:53:
        a6:07:34:8d:6c:85:2e:96:25:89:fe:d0:85:54:5e:a7:70
-----BEGIN CERTIFICATE-----
MIIBHTCBxAIBBDAKBggqhkjOPQQDAjAaMQswCQYDVQQGEwJVUzELMAkGA1UEAwwC
Y2EwHhcNMjMwNjI3MTE1OTQ0WhcNMjQwNjI2MTE1OTQ0WjAcMQswCQYDVQQGEwJV
UzENMAsGA1UEAwwEZGV2MTBZMBMGByqGSM49AgEGCCqGSM49AwEHA0IABNkztng1
vx0oQRzitwfqPJ1YjmCURI/kku6WbrThLlyeNVZMV0R41oj1PqnPJ9J13KCbpObb
kiGuycX90TAjP5UwCgYIKoZIzj0EAwIDSAAwRQIgU1CBh6t7zofFGSLYqHkOM4UC
uoelXMyC93bXecXHlfYCIQDJB/NUPxQTHg+d2hsTElOmBzSNbIUuliWJ/tCFVF6n
cA==
-----END CERTIFICATE-----
