Certificate:
    Data:
        Version: 1 (0x0)
        Serial Number: 4 (0x4)
        Signature Algorithm: ecdsa-with-SHA256
        Issuer: C=US, CN=ca
        Validity
            Not Before: Jun 28 01:04:56 2023 GMT
            Not After : Jun 27 01:04:56 2024 GMT
        Subject: C=US, CN=dev1
        Subject Public Key Info:
            Public Key Algorithm: id-ecPublicKey
                Public-Key: (256 bit)
                pub:
                    04:97:36:00:fc:22:90:b9:89:e2:14:76:21:3f:d8:
                    ba:6b:63:20:9b:e6:16:1d:7b:84:78:1d:bb:fd:e9:
                    fa:d1:b7:59:26:a6:78:a6:67:ed:20:5a:dc:fb:4f:
                    58:07:0d:5c:6f:c6:4f:07:ba:21:68:8c:e0:7c:12:
                    49:83:85:13:cd
                ASN1 OID: prime256v1
                NIST CURVE: P-256
    Signature Algorithm: ecdsa-with-SHA256
    Signature Value:
        30:45:02:20:5b:24:d4:84:4d:20:b8:19:47:a9:90:f5:d2:35:
        7e:a6:80:20:7b:27:f4:06:38:98:45:31:47:c6:29:19:ac:0d:
        02:21:00:ce:05:b1:03:84:7a:e9:22:84:de:e4:47:a7:e4:5a:
        8e:6a:12:ec:2a:04:2a:42:ca:64:63:6a:98:48:aa:aa:e0
-----BEGIN CERTIFICATE-----
MIIBHTCBxAIBBDAKBggqhkjOPQQDAjAaMQswCQYDVQQGEwJVUzELMAkGA1UEAwwC
Y2EwHhcNMjMwNjI4MDEwNDU2WhcNMjQwNjI3MDEwNDU2WjAcMQswCQYDVQQGEwJV
UzENMAsGA1UEAwwEZGV2MTBZMBMGByqGSM49AgEGCCqGSM49AwEHA0IABJc2APwi
kLmJ4hR2IT/YumtjIJvmFh17hHgdu/3p+tG3WSameKZn7SBa3PtPWAcNXG/GTwe6
IWiM4HwSSYOFE80wCgYIKoZIzj0EAwIDSAAwRQIgWyTUhE0guBlHqZD10jV+poAg
eyf0BjiYRTFHxikZrA0CIQDOBbEDhHrpIoTe5Een5FqOahLsKgQqQspkY2qYSKqq
4A==
-----END CERTIFICATE-----
