Certificate:
    Data:
        Version: 1 (0x0)
        Serial Number: 5 (0x5)
        Signature Algorithm: ecdsa-with-SHA256
        Issuer: C=US, CN=ca
        Validity
            Not Before: Jun 28 01:04:56 2023 GMT
            Not After : Jun 27 01:04:56 2024 GMT
        Subject: C=US, CN=dev2
        Subject Public Key Info:
            Public Key Algorithm: id-ecPublicKey
                Public-Key: (256 bit)
                pub:
                    04:bd:73:d3:56:ed:b6:77:c1:89:5e:cd:a2:f0:3d:
                    45:2a:96:d0:46:49:ab:b9:0f:03:be:3c:13:bf:8b:
                    08:97:1a:52:e8:a5:4a:4d:88:03:cb:63:b0:13:5a:
                    d2:27:b0:dd:f9:0f:6a:ed:84:55:b7:d8:1f:ff:1e:
                    bb:05:19:75:ab
                ASN1 OID: prime256v1
                NIST CURVE: P-256
    Signature Algorithm: ecdsa-with-SHA256
    Signature Value:
        30:45:02:20:08:ac:9b:a9:83:fd:df:23:2c:de:64:45:a7:31:
        e4:07:3c:aa:89:78:f8:f1:72:df:34:42:8a:9c:33:2e:de:de:
        02:21:00:9a:3a:e0:28:b8:2b:69:53:dd:1b:f0:ec:12:4e:2d:
        83:8d:ab:56:fd:1d:60:11:b4:bc:5c:9e:b1:14:e4:fa:c5
-----BEGIN CERTIFICATE-----
MIIBHTCBxAIBBTAKBggqhkjOPQQDAjAaMQswCQYDVQQGEwJVUzELMAkGA1UEAwwC
Y2EwHhcNMjMwNjI4MDEwNDU2WhcNMjQwNjI3MDEwNDU2WjAcMQswCQYDVQQGEwJV
UzENMAsGA1UEAwwEZGV2MjBZMBMGByqGSM49AgEGCCqGSM49AwEHA0IABL1z01bt
tnfBiV7NovA9RSqW0EZJq7kPA748E7+LCJcaUuilSk2IA8tjsBNa0iew3fkPau2E
VbfYH/8euwUZdaswCgYIKoZIzj0EAwIDSAAwRQIgCKybqYP93yMs3mRFpzHkBzyq
iXj48XLfNEKKnDMu3t4CIQCaOuAouCtpU90b8OwSTi2DjatW/R1gEbS8XJ6xFOT6
xQ==
-----END CERTIFICATE-----
