Certificate:
    Data:
        Version: 1 (0x0)
        Serial Number: 5 (0x5)
        Signature Algorithm: ecdsa-with-SHA256
        Issuer: C=US, CN=ca
        Validity
            Not Before: Aug 12 06:51:27 2023 GMT
            Not After : Aug 11 06:51:27 2024 GMT
        Subject: C=US, CN=dev2
        Subject Public Key Info:
            Public Key Algorithm: id-ecPublicKey
                Public-Key: (256 bit)
                pub:
                    04:d7:ca:80:e7:89:4e:aa:b2:8f:ec:09:03:9b:ba:
                    85:2a:52:f7:6a:27:48:ca:86:e3:36:fa:0e:25:78:
                    6c:3c:c0:11:99:ab:e8:93:20:9b:93:bc:f0:38:2b:
                    90:f9:14:0c:86:99:b0:f8:ea:9d:a5:09:f7:1f:4e:
                    96:b3:b3:d4:19
                ASN1 OID: prime256v1
                NIST CURVE: P-256
    Signature Algorithm: ecdsa-with-SHA256
    Signature Value:
        30:46:02:21:00:8e:68:b0:18:9d:00:76:97:72:17:f2:7e:2c:
        77:9a:af:c3:dc:dc:3e:53:e1:94:1d:a0:60:94:47:56:d7:cb:
        ee:02:21:00:80:cc:c9:50:c8:14:b3:62:28:19:68:77:66:3f:
        4e:61:d2:f8:aa:f1:26:e8:f4:50:a3:32:6f:d3:74:13:e9:57
-----BEGIN CERTIFICATE-----
MIIBHjCBxAIBBTAKBggqhkjOPQQDAjAaMQswCQYDVQQGEwJVUzELMAkGA1UEAwwC
Y2EwHhcNMjMwODEyMDY1MTI3WhcNMjQwODExMDY1MTI3WjAcMQswCQYDVQQGEwJV
UzENMAsGA1UEAwwEZGV2MjBZMBMGByqGSM49AgEGCCqGSM49AwEHA0IABNfKgOeJ
Tqqyj+wJA5u6hSpS92onSMqG4zb6DiV4bDzAEZmr6JMgm5O88DgrkPkUDIaZsPjq
naUJ9x9OlrOz1BkwCgYIKoZIzj0EAwIDSQAwRgIhAI5osBidAHaXchfyfix3mq/D
3Nw+U+GUHaBglEdW18vuAiEAgMzJUMgUs2IoGWh3Zj9OYdL4qvEm6PRQozJv03QT
6Vc=
-----END CERTIFICATE-----
