Certificate:
    Data:
        Version: 1 (0x0)
        Serial Number: 1 (0x1)
        Signature Algorithm: ecdsa-with-SHA256
        Issuer: C=US, CN=ca
        Validity
            Not Before: Aug 12 06:51:27 2023 GMT
            Not After : Aug 11 06:51:27 2024 GMT
        Subject: C=US, CN=fd99:d694:f603:27ad:400b:22ff:fe42:a1f2
        Subject Public Key Info:
            Public Key Algorithm: id-ecPublicKey
                Public-Key: (256 bit)
                pub:
                    04:69:b7:7b:10:d7:e4:a0:3d:3f:8f:71:dd:ff:f2:
                    03:13:fa:44:29:2a:d6:be:78:db:cc:09:4a:4c:e8:
                    42:46:6c:03:74:1c:fe:d4:64:3d:2c:36:ea:6b:a7:
                    21:6a:c0:08:3d:1d:01:5e:7c:30:0d:90:33:6e:f2:
                    1b:3c:56:52:5f
                ASN1 OID: prime256v1
                NIST CURVE: P-256
    Signature Algorithm: ecdsa-with-SHA256
    Signature Value:
        30:44:02:20:29:71:ee:c0:a3:c7:e7:9d:64:54:00:1c:12:37:
        92:5f:b2:95:e8:42:e3:d0:fd:ca:22:29:f1:16:c8:6d:ff:fe:
        02:20:41:86:71:e2:7d:54:91:13:b1:d7:99:82:50:57:c1:77:
        3d:4e:ee:7d:16:23:c4:92:ab:1b:7d:af:95:bb:d0:4d
-----BEGIN CERTIFICATE-----
MIIBPzCB5wIBATAKBggqhkjOPQQDAjAaMQswCQYDVQQGEwJVUzELMAkGA1UEAwwC
Y2EwHhcNMjMwODEyMDY1MTI3WhcNMjQwODExMDY1MTI3WjA/MQswCQYDVQQGEwJV
UzEwMC4GA1UEAwwnZmQ5OTpkNjk0OmY2MDM6MjdhZDo0MDBiOjIyZmY6ZmU0Mjph
MWYyMFkwEwYHKoZIzj0CAQYIKoZIzj0DAQcDQgAEabd7ENfkoD0/j3Hd//IDE/pE
KSrWvnjbzAlKTOhCRmwDdBz+1GQ9LDbqa6chasAIPR0BXnwwDZAzbvIbPFZSXzAK
BggqhkjOPQQDAgNHADBEAiApce7Ao8fnnWRUABwSN5JfspXoQuPQ/coiKfEWyG3/
/gIgQYZx4n1UkROx15mCUFfBdz1O7n0WI8SSqxt9r5W70E0=
-----END CERTIFICATE-----
