Certificate:
    Data:
        Version: 1 (0x0)
        Serial Number: 1 (0x1)
        Signature Algorithm: ecdsa-with-SHA256
        Issuer: C=US, CN=ca
        Validity
            Not Before: Jun 28 21:25:00 2023 GMT
            Not After : Jun 27 21:25:00 2024 GMT
        Subject: C=US, CN=fd99:d694:f603:27ad:f8b9:8dff:fe27:c681
        Subject Public Key Info:
            Public Key Algorithm: id-ecPublicKey
                Public-Key: (256 bit)
                pub:
                    04:1d:ce:cb:b1:4c:62:62:cc:ce:c4:35:a8:fe:f5:
                    d1:a1:36:96:c1:d8:c1:39:36:55:f5:66:03:9f:b1:
                    64:35:62:05:82:7b:7d:ea:72:5f:e7:e1:0b:e5:c7:
                    84:9c:31:fe:8a:ab:05:59:1f:17:1e:40:ee:3a:97:
                    73:99:8d:59:f1
                ASN1 OID: prime256v1
                NIST CURVE: P-256
    Signature Algorithm: ecdsa-with-SHA256
    Signature Value:
        30:44:02:20:55:92:c9:9b:1c:68:46:5e:1e:9c:f9:72:9c:df:
        3b:43:26:09:26:17:86:30:a3:fc:00:37:6b:0b:9b:06:ab:c8:
        02:20:76:6d:76:35:de:73:ba:fa:15:cb:0f:0d:83:34:52:75:
        7b:e8:f2:65:f0:b6:b0:11:38:6d:b8:10:ab:db:a7:96
-----BEGIN CERTIFICATE-----
MIIBPzCB5wIBATAKBggqhkjOPQQDAjAaMQswCQYDVQQGEwJVUzELMAkGA1UEAwwC
Y2EwHhcNMjMwNjI4MjEyNTAwWhcNMjQwNjI3MjEyNTAwWjA/MQswCQYDVQQGEwJV
UzEwMC4GA1UEAwwnZmQ5OTpkNjk0OmY2MDM6MjdhZDpmOGI5OjhkZmY6ZmUyNzpj
NjgxMFkwEwYHKoZIzj0CAQYIKoZIzj0DAQcDQgAEHc7LsUxiYszOxDWo/vXRoTaW
wdjBOTZV9WYDn7FkNWIFgnt96nJf5+EL5ceEnDH+iqsFWR8XHkDuOpdzmY1Z8TAK
BggqhkjOPQQDAgNHADBEAiBVksmbHGhGXh6c+XKc3ztDJgkmF4Ywo/wAN2sLmwar
yAIgdm12Nd5zuvoVyw8NgzRSdXvo8mXwtrAROG24EKvbp5Y=
-----END CERTIFICATE-----
